; ModuleID = '11/261.c'
source_filename = "11/261.c"
target datalayout = "e-m:e-p270:32:32-p271:32:32-p272:64:64-i64:64-f80:128-n8:16:32:64-S128"
target triple = "x86_64-pc-linux-gnu"

@.str = private unnamed_addr constant [9 x i8] c"%d %d %d\00", align 1
@.str.1 = private unnamed_addr constant [4 x i8] c"%d\0A\00", align 1

; Function Attrs: noinline nounwind uwtable
define dso_local i32 @main() #0 {
  %1 = alloca i32, align 4
  %2 = alloca [5 x i32], align 16
  %3 = alloca [5 x i32], align 16
  %4 = alloca [5 x i32], align 16
  %5 = alloca [5 x i32], align 16
  %6 = alloca i32, align 4
  store i32 0, i32* %1, align 4
  store i32 0, i32* %6, align 4
  br label %7

7:                                                ; preds = %21, %0
  %8 = load i32, i32* %6, align 4
  %9 = icmp sle i32 %8, 4
  br i1 %9, label %10, label %24

10:                                               ; preds = %7
  %11 = load i32, i32* %6, align 4
  %12 = sext i32 %11 to i64
  %13 = getelementptr inbounds [5 x i32], [5 x i32]* %4, i64 0, i64 %12
  %14 = load i32, i32* %6, align 4
  %15 = sext i32 %14 to i64
  %16 = getelementptr inbounds [5 x i32], [5 x i32]* %2, i64 0, i64 %15
  %17 = load i32, i32* %6, align 4
  %18 = sext i32 %17 to i64
  %19 = getelementptr inbounds [5 x i32], [5 x i32]* %3, i64 0, i64 %18
  %20 = call i32 (i8*, ...) @__isoc99_scanf(i8* getelementptr inbounds ([9 x i8], [9 x i8]* @.str, i64 0, i64 0), i32* %13, i32* %16, i32* %19)
  br label %21

21:                                               ; preds = %10
  %22 = load i32, i32* %6, align 4
  %23 = add nsw i32 %22, 1
  store i32 %23, i32* %6, align 4
  br label %7

24:                                               ; preds = %7
  store i32 0, i32* %6, align 4
  br label %25

25:                                               ; preds = %105, %24
  %26 = load i32, i32* %6, align 4
  %27 = icmp sle i32 %26, 4
  br i1 %27, label %28, label %108

28:                                               ; preds = %25
  %29 = load i32, i32* %6, align 4
  %30 = sext i32 %29 to i64
  %31 = getelementptr inbounds [5 x i32], [5 x i32]* %4, i64 0, i64 %30
  %32 = load i32, i32* %31, align 4
  %33 = srem i32 %32, 4
  %34 = icmp eq i32 %33, 0
  br i1 %34, label %35, label %42

35:                                               ; preds = %28
  %36 = load i32, i32* %6, align 4
  %37 = sext i32 %36 to i64
  %38 = getelementptr inbounds [5 x i32], [5 x i32]* %4, i64 0, i64 %37
  %39 = load i32, i32* %38, align 4
  %40 = srem i32 %39, 100
  %41 = icmp ne i32 %40, 0
  br i1 %41, label %49, label %42

42:                                               ; preds = %35, %28
  %43 = load i32, i32* %6, align 4
  %44 = sext i32 %43 to i64
  %45 = getelementptr inbounds [5 x i32], [5 x i32]* %4, i64 0, i64 %44
  %46 = load i32, i32* %45, align 4
  %47 = srem i32 %46, 400
  %48 = icmp eq i32 %47, 0
  br i1 %48, label %49, label %85

49:                                               ; preds = %42, %35
  %50 = load i32, i32* %6, align 4
  %51 = sext i32 %50 to i64
  %52 = getelementptr inbounds [5 x i32], [5 x i32]* %2, i64 0, i64 %51
  %53 = load i32, i32* %52, align 4
  %54 = icmp sle i32 %53, 2
  br i1 %54, label %55, label %69

55:                                               ; preds = %49
  %56 = load i32, i32* %6, align 4
  %57 = sext i32 %56 to i64
  %58 = getelementptr inbounds [5 x i32], [5 x i32]* %2, i64 0, i64 %57
  %59 = load i32, i32* %58, align 4
  %60 = call i32 @f(i32 %59)
  %61 = load i32, i32* %6, align 4
  %62 = sext i32 %61 to i64
  %63 = getelementptr inbounds [5 x i32], [5 x i32]* %3, i64 0, i64 %62
  %64 = load i32, i32* %63, align 4
  %65 = add nsw i32 %60, %64
  %66 = load i32, i32* %6, align 4
  %67 = sext i32 %66 to i64
  %68 = getelementptr inbounds [5 x i32], [5 x i32]* %5, i64 0, i64 %67
  store i32 %65, i32* %68, align 4
  br label %84

69:                                               ; preds = %49
  %70 = load i32, i32* %6, align 4
  %71 = sext i32 %70 to i64
  %72 = getelementptr inbounds [5 x i32], [5 x i32]* %2, i64 0, i64 %71
  %73 = load i32, i32* %72, align 4
  %74 = call i32 @f(i32 %73)
  %75 = load i32, i32* %6, align 4
  %76 = sext i32 %75 to i64
  %77 = getelementptr inbounds [5 x i32], [5 x i32]* %3, i64 0, i64 %76
  %78 = load i32, i32* %77, align 4
  %79 = add nsw i32 %74, %78
  %80 = add nsw i32 %79, 1
  %81 = load i32, i32* %6, align 4
  %82 = sext i32 %81 to i64
  %83 = getelementptr inbounds [5 x i32], [5 x i32]* %5, i64 0, i64 %82
  store i32 %80, i32* %83, align 4
  br label %84

84:                                               ; preds = %69, %55
  br label %99

85:                                               ; preds = %42
  %86 = load i32, i32* %6, align 4
  %87 = sext i32 %86 to i64
  %88 = getelementptr inbounds [5 x i32], [5 x i32]* %2, i64 0, i64 %87
  %89 = load i32, i32* %88, align 4
  %90 = call i32 @f(i32 %89)
  %91 = load i32, i32* %6, align 4
  %92 = sext i32 %91 to i64
  %93 = getelementptr inbounds [5 x i32], [5 x i32]* %3, i64 0, i64 %92
  %94 = load i32, i32* %93, align 4
  %95 = add nsw i32 %90, %94
  %96 = load i32, i32* %6, align 4
  %97 = sext i32 %96 to i64
  %98 = getelementptr inbounds [5 x i32], [5 x i32]* %5, i64 0, i64 %97
  store i32 %95, i32* %98, align 4
  br label %99

99:                                               ; preds = %85, %84
  %100 = load i32, i32* %6, align 4
  %101 = sext i32 %100 to i64
  %102 = getelementptr inbounds [5 x i32], [5 x i32]* %5, i64 0, i64 %101
  %103 = load i32, i32* %102, align 4
  %104 = call i32 (i8*, ...) @printf(i8* getelementptr inbounds ([4 x i8], [4 x i8]* @.str.1, i64 0, i64 0), i32 %103)
  br label %105

105:                                              ; preds = %99
  %106 = load i32, i32* %6, align 4
  %107 = add nsw i32 %106, 1
  store i32 %107, i32* %6, align 4
  br label %25

108:                                              ; preds = %25
  ret i32 0
}

declare dso_local i32 @__isoc99_scanf(i8*, ...) #1

; Function Attrs: noinline nounwind uwtable
define dso_local i32 @f(i32 %0) #0 {
  %2 = alloca i32, align 4
  %3 = alloca i32, align 4
  store i32 %0, i32* %2, align 4
  %4 = load i32, i32* %2, align 4
  switch i32 %4, label %17 [
    i32 1, label %5
    i32 2, label %6
    i32 3, label %7
    i32 4, label %8
    i32 5, label %9
    i32 6, label %10
    i32 7, label %11
    i32 8, label %12
    i32 9, label %13
    i32 10, label %14
    i32 11, label %15
    i32 12, label %16
  ]

5:                                                ; preds = %1
  store i32 0, i32* %3, align 4
  br label %17

6:                                                ; preds = %1
  store i32 31, i32* %3, align 4
  br label %17

7:                                                ; preds = %1
  store i32 59, i32* %3, align 4
  br label %17

8:                                                ; preds = %1
  store i32 90, i32* %3, align 4
  br label %17

9:                                                ; preds = %1
  store i32 120, i32* %3, align 4
  br label %17

10:                                               ; preds = %1
  store i32 151, i32* %3, align 4
  br label %17

11:                                               ; preds = %1
  store i32 181, i32* %3, align 4
  br label %17

12:                                               ; preds = %1
  store i32 212, i32* %3, align 4
  br label %17

13:                                               ; preds = %1
  store i32 243, i32* %3, align 4
  br label %17

14:                                               ; preds = %1
  store i32 273, i32* %3, align 4
  br label %17

15:                                               ; preds = %1
  store i32 304, i32* %3, align 4
  br label %17

16:                                               ; preds = %1
  store i32 334, i32* %3, align 4
  br label %17

17:                                               ; preds = %16, %1, %15, %14, %13, %12, %11, %10, %9, %8, %7, %6, %5
  %18 = load i32, i32* %3, align 4
  ret i32 %18
}

declare dso_local i32 @printf(i8*, ...) #1


!llvm.module.flags = !{!0}
!llvm.ident = !{!1}

!0 = !{i32 1, !"wchar_size", i32 4}
!1 = !{!"clang version 10.0.0-4ubuntu1 "}
